(lp0
(lp1
I48
aI56
aa(lp2
I48
aI56
aa(lp3
I46
aI55
aa(lp4
I43
aI53
aa(lp5
I40
aI51
aa(lp6
I37
aI49
aa(lp7
I34
aI48
aa(lp8
I32
aI47
aa(lp9
I30
aI46
aa(lp10
I28
aI45
aa(lp11
I26
aI43
aa(lp12
I25
aI42
aa(lp13
I23
aI40
aa(lp14
I21
aI38
aa(lp15
I19
aI36
aa(lp16
I17
aI34
aa(lp17
I15
aI32
aa(lp18
I13
aI30
aa(lp19
I12
aI28
aa(lp20
I11
aI26
aa(lp21
I9
aI24
aa(lp22
I8
aI22
aa(lp23
I9
aI21
aa(lp24
I8
aI19
aa(lp25
I8
aI18
aa(lp26
I8
aI17
aa(lp27
I8
aI16
aa(lp28
I8
aI15
aa(lp29
I8
aI14
aa(lp30
I8
aI13
aa(lp31
I8
aI12
aa(lp32
I9
aI10
aa(lp33
I10
aI8
aa(lp34
I11
aI6
aa(lp35
I12
aI4
aa(lp36
I13
aI2
aa.