(lp0
(lp1
I0
aI0
aa(lp2
I-2
aI-1
aa(lp3
I-3
aI-2
aa(lp4
I-3
aI-2
aa(lp5
I-3
aI-2
aa(lp6
I-3
aI-1
aa(lp7
I-2
aI-1
aa(lp8
I-2
aI-1
aa(lp9
I-2
aI-1
aa(lp10
I-2
aI-2
aa(lp11
I-1
aI-1
aa(lp12
I-2
aI-2
aa(lp13
I-2
aI-2
aa(lp14
I-2
aI-2
aa(lp15
I-2
aI-2
aa(lp16
I-2
aI-2
aa(lp17
I-2
aI-2
aa(lp18
I-1
aI-2
aa(lp19
I-1
aI-2
aa(lp20
I-2
aI-2
aa(lp21
I-1
aI-2
aa(lp22
I1
aI-1
aa(lp23
I-1
aI-2
aa(lp24
I0
aI-1
aa(lp25
I0
aI-1
aa(lp26
I0
aI-1
aa(lp27
I0
aI-1
aa(lp28
I0
aI-1
aa(lp29
I0
aI-1
aa(lp30
I0
aI-1
aa(lp31
I1
aI-2
aa(lp32
I1
aI-2
aa(lp33
I1
aI-2
aa(lp34
I1
aI-2
aa(lp35
I1
aI-2
aa(lp36
I1
aI-2
aa.