(lp0
(lp1
I6
aI7
aa(lp2
I6
aI7
aa(lp3
I6
aI7
aa(lp4
I5
aI7
aa(lp5
I5
aI6
aa(lp6
I5
aI6
aa(lp7
I4
aI6
aa(lp8
I4
aI6
aa(lp9
I4
aI6
aa(lp10
I4
aI6
aa(lp11
I3
aI5
aa(lp12
I3
aI5
aa(lp13
I3
aI5
aa(lp14
I3
aI5
aa(lp15
I2
aI5
aa(lp16
I2
aI4
aa(lp17
I2
aI4
aa(lp18
I2
aI4
aa(lp19
I2
aI4
aa(lp20
I1
aI3
aa(lp21
I1
aI3
aa(lp22
I1
aI3
aa(lp23
I1
aI3
aa(lp24
I1
aI2
aa(lp25
I1
aI2
aa(lp26
I1
aI2
aa(lp27
I1
aI2
aa(lp28
I1
aI2
aa(lp29
I1
aI2
aa(lp30
I1
aI2
aa(lp31
I1
aI2
aa(lp32
I1
aI1
aa(lp33
I1
aI1
aa(lp34
I1
aI1
aa(lp35
I2
aI1
aa(lp36
I2
aI0
aa.