(lp0
(lp1
I6
aI7
aa(lp2
I6
aI7
aa(lp3
I6
aI7
aa(lp4
I5
aI6
aa(lp5
I5
aI6
aa(lp6
I5
aI6
aa(lp7
I5
aI6
aa(lp8
I4
aI5
aa(lp9
I4
aI5
aa(lp10
I4
aI5
aa(lp11
I4
aI5
aa(lp12
I4
aI4
aa(lp13
I4
aI4
aa(lp14
I4
aI4
aa(lp15
I4
aI4
aa(lp16
I4
aI3
aa(lp17
I4
aI3
aa(lp18
I4
aI3
aa(lp19
I4
aI3
aa(lp20
I4
aI3
aa(lp21
I4
aI3
aa(lp22
I4
aI3
aa(lp23
I4
aI3
aa(lp24
I4
aI3
aa(lp25
I4
aI3
aa(lp26
I4
aI3
aa(lp27
I4
aI3
aa(lp28
I4
aI3
aa.