(lp0
(lp1
I50
aI56
aa(lp2
I50
aI56
aa(lp3
I48
aI55
aa(lp4
I45
aI53
aa(lp5
I43
aI51
aa(lp6
I41
aI49
aa(lp7
I39
aI47
aa(lp8
I37
aI45
aa(lp9
I35
aI43
aa(lp10
I34
aI41
aa(lp11
I33
aI39
aa(lp12
I32
aI37
aa(lp13
I31
aI35
aa(lp14
I30
aI33
aa(lp15
I30
aI31
aa(lp16
I30
aI29
aa(lp17
I30
aI27
aa(lp18
I30
aI25
aa(lp19
I30
aI23
aa(lp20
I31
aI22
aa(lp21
I31
aI22
aa(lp22
I31
aI22
aa(lp23
I31
aI22
aa(lp24
I31
aI22
aa(lp25
I31
aI22
aa(lp26
I31
aI22
aa(lp27
I31
aI22
aa(lp28
I31
aI22
aa.