(lp0
(lp1
I0
aI0
aa(lp2
I-2
aI-1
aa(lp3
I-3
aI-2
aa(lp4
I-2
aI-2
aa(lp5
I-2
aI-2
aa(lp6
I-2
aI-2
aa(lp7
I-2
aI-2
aa(lp8
I-2
aI-2
aa(lp9
I-1
aI-2
aa(lp10
I-1
aI-2
aa(lp11
I-1
aI-2
aa(lp12
I-1
aI-2
aa(lp13
I-1
aI-2
aa(lp14
I0
aI-2
aa(lp15
I0
aI-2
aa(lp16
I0
aI-2
aa(lp17
I0
aI-2
aa(lp18
I0
aI-2
aa(lp19
I1
aI-1
aa(lp20
I0
aI0
aa(lp21
I0
aI0
aa(lp22
I0
aI0
aa(lp23
I0
aI0
aa(lp24
I0
aI0
aa(lp25
I0
aI0
aa(lp26
I0
aI0
aa(lp27
I0
aI0
aa(lp28
I0
aI0
aa.